; Function Attrs: mustprogress uwtable
define internal noundef ptr @"_ZZN4pkpy12add_module_cEPNS_2VMEEN3$_18__invokeES1_NS_8ArgsViewE"(ptr noundef %0, ptr nocapture readonly %1, ptr nocapture readnone %2) #3 align 2 {
  %4 = load ptr, ptr %1, align 8
  %5 = getelementptr inbounds i8, ptr %0, i64 264520
  %6 = load ptr, ptr %5, align 8
  %7 = icmp eq ptr %6, %4
  br i1 %7, label %"_ZZN4pkpy12add_module_cEPNS_2VMEENK3$_1clES1_NS_8ArgsViewE.exit", label %8

8:                                                ; preds = %3
  %9 = tail call i16 @_ZN4pkpy2VM28_find_type_in_cxx_typeid_mapINS_5VoidPEEENS_4TypeEv(ptr noundef nonnull align 8 dereferenceable(264913) %0)
  %10 = tail call noundef zeroext i1 @_ZN4pkpy2VM10isinstanceEPNS_8PyObjectENS_4TypeE(ptr noundef nonnull align 8 dereferenceable(264913) %0, ptr noundef %4, i16 %9)
  br i1 %10, label %_ZN4pkpy7py_castIRNS_5VoidPEEET_PNS_2VMEPNS_8PyObjectE.exit.i.i.i.i, label %11

11:                                               ; preds = %8
  %12 = ptrtoint ptr %4 to i64
  %13 = and i64 %12, 3
  %14 = icmp eq i64 %13, 2
  %15 = getelementptr inbounds i8, ptr %4, i64 10
  %16 = select i1 %14, ptr @_ZN4pkpy2VM6tp_intE, ptr %15
  %.sroa.0.0.copyload.i.i.i.i.i.i.i.i = load i16, ptr %16, align 2
  tail call void @_ZN4pkpy2VM9TypeErrorENS_4TypeES1_(ptr noundef nonnull align 8 dereferenceable(264913) %0, i16 %9, i16 %.sroa.0.0.copyload.i.i.i.i.i.i.i.i)
  br label %_ZN4pkpy7py_castIRNS_5VoidPEEET_PNS_2VMEPNS_8PyObjectE.exit.i.i.i.i

_ZN4pkpy7py_castIRNS_5VoidPEEET_PNS_2VMEPNS_8PyObjectE.exit.i.i.i.i: ; preds = %11, %8
  %17 = getelementptr inbounds i8, ptr %4, i64 24
  %18 = load ptr, ptr %17, align 8
  br label %"_ZZN4pkpy12add_module_cEPNS_2VMEENK3$_1clES1_NS_8ArgsViewE.exit"

"_ZZN4pkpy12add_module_cEPNS_2VMEENK3$_1clES1_NS_8ArgsViewE.exit": ; preds = %3, %_ZN4pkpy7py_castIRNS_5VoidPEEET_PNS_2VMEPNS_8PyObjectE.exit.i.i.i.i
  %.0.i.i.i.i = phi ptr [ %18, %_ZN4pkpy7py_castIRNS_5VoidPEEET_PNS_2VMEPNS_8PyObjectE.exit.i.i.i.i ], [ null, %3 ]
  tail call void @free(ptr noundef %.0.i.i.i.i) #24
  %19 = load ptr, ptr %5, align 8
  ret ptr %19
}